target datalayout = "e-m:e-p270:32:32-p271:32:32-p272:64:64-i64:64-i128:128-f80:128-n8:16:32:64-S128"
target triple = "x86_64-pc-linux-gnu"

%struct.cl_fmap = type { ptr, ptr, ptr, i64, i64, i64, i64, i8, i8, i8, i64, i64, i64, i64, ptr, ptr, ptr, ptr, ptr, ptr, ptr, i8, [16 x i8], i8, [20 x i8], i8, [32 x i8], ptr, ptr }

; Function Attrs: nounwind uwtable
define internal i64 @fmap_which_page(ptr noundef %0, i64 noundef %1) #0 {
  %3 = alloca ptr, align 8
  %4 = alloca i64, align 8
  store ptr %0, ptr %3, align 8
  store i64 %1, ptr %4, align 8
  %5 = load i64, ptr %4, align 8
  %6 = load ptr, ptr %3, align 8
  %7 = getelementptr inbounds %struct.cl_fmap, ptr %6, i32 0, i32 5
  %8 = load i64, ptr %7, align 8
  %9 = udiv i64 %5, %8
  ret i64 %9
}

; Function Attrs: nounwind uwtable
define internal ptr @handle_gets(ptr noundef %0, ptr noundef %1, ptr noundef %2, i64 noundef %3) #0 {
  %5 = alloca ptr, align 8
  %6 = alloca ptr, align 8
  %7 = alloca ptr, align 8
  %8 = alloca ptr, align 8
  %9 = alloca i64, align 8
  %10 = alloca i64, align 8
  %11 = alloca i64, align 8
  %12 = alloca i64, align 8
  %13 = alloca ptr, align 8
  %14 = alloca ptr, align 8
  %15 = alloca i64, align 8
  %16 = alloca i64, align 8
  %17 = alloca ptr, align 8
  %18 = alloca i64, align 8
  %19 = alloca i64, align 8
  store ptr %0, ptr %6, align 8
  store ptr %1, ptr %7, align 8
  store ptr %2, ptr %8, align 8
  store i64 %3, ptr %9, align 8
  %20 = load ptr, ptr %6, align 8
  %21 = getelementptr inbounds %struct.cl_fmap, ptr %20, i32 0, i32 2
  %22 = load ptr, ptr %21, align 8
  %23 = load ptr, ptr %6, align 8
  %24 = getelementptr inbounds %struct.cl_fmap, ptr %23, i32 0, i32 11
  %25 = load i64, ptr %24, align 8
  %26 = getelementptr inbounds i8, ptr %22, i64 %25
  %27 = load ptr, ptr %8, align 8
  %28 = load i64, ptr %27, align 8
  %29 = getelementptr inbounds i8, ptr %26, i64 %28
  store ptr %29, ptr %13, align 8
  store ptr null, ptr %14, align 8
  %30 = load i64, ptr %9, align 8
  %31 = sub i64 %30, 1
  %32 = load ptr, ptr %6, align 8
  %33 = getelementptr inbounds %struct.cl_fmap, ptr %32, i32 0, i32 13
  %34 = load i64, ptr %33, align 8
  %35 = load ptr, ptr %8, align 8
  %36 = load i64, ptr %35, align 8
  %37 = sub i64 %34, %36
  %38 = icmp ult i64 %31, %37
  br i1 %38, label %39, label %42

39:                                               ; preds = %4
  %40 = load i64, ptr %9, align 8
  %41 = sub i64 %40, 1
  br label %49

42:                                               ; preds = %4
  %43 = load ptr, ptr %6, align 8
  %44 = getelementptr inbounds %struct.cl_fmap, ptr %43, i32 0, i32 13
  %45 = load i64, ptr %44, align 8
  %46 = load ptr, ptr %8, align 8
  %47 = load i64, ptr %46, align 8
  %48 = sub i64 %45, %47
  br label %49

49:                                               ; preds = %42, %39
  %50 = phi i64 [ %41, %39 ], [ %48, %42 ]
  store i64 %50, ptr %15, align 8
  %51 = load i64, ptr %15, align 8
  store i64 %51, ptr %16, align 8
  %52 = load i64, ptr %15, align 8
  %53 = icmp ne i64 %52, 0
  br i1 %53, label %54, label %84

54:                                               ; preds = %49
  %55 = load ptr, ptr %6, align 8
  %56 = getelementptr inbounds %struct.cl_fmap, ptr %55, i32 0, i32 13
  %57 = load i64, ptr %56, align 8
  %58 = icmp ugt i64 %57, 0
  br i1 %58, label %59, label %84

59:                                               ; preds = %54
  %60 = load i64, ptr %15, align 8
  %61 = icmp ugt i64 %60, 0
  br i1 %61, label %62, label %84

62:                                               ; preds = %59
  %63 = load i64, ptr %15, align 8
  %64 = load ptr, ptr %6, align 8
  %65 = getelementptr inbounds %struct.cl_fmap, ptr %64, i32 0, i32 13
  %66 = load i64, ptr %65, align 8
  %67 = icmp ule i64 %63, %66
  br i1 %67, label %68, label %84

68:                                               ; preds = %62
  %69 = load ptr, ptr %8, align 8
  %70 = load i64, ptr %69, align 8
  %71 = load i64, ptr %15, align 8
  %72 = add i64 %70, %71
  %73 = load ptr, ptr %6, align 8
  %74 = getelementptr inbounds %struct.cl_fmap, ptr %73, i32 0, i32 13
  %75 = load i64, ptr %74, align 8
  %76 = icmp ule i64 %72, %75
  br i1 %76, label %77, label %84

77:                                               ; preds = %68
  %78 = load ptr, ptr %8, align 8
  %79 = load i64, ptr %78, align 8
  %80 = load ptr, ptr %6, align 8
  %81 = getelementptr inbounds %struct.cl_fmap, ptr %80, i32 0, i32 13
  %82 = load i64, ptr %81, align 8
  %83 = icmp ult i64 %79, %82
  br i1 %83, label %85, label %84

84:                                               ; preds = %77, %68, %62, %59, %54, %49
  store ptr null, ptr %5, align 8
  br label %228

85:                                               ; preds = %77
  %86 = load ptr, ptr %6, align 8
  call void @fmap_aging(ptr noundef %86)
  %87 = load ptr, ptr %6, align 8
  %88 = load ptr, ptr %6, align 8
  %89 = getelementptr inbounds %struct.cl_fmap, ptr %88, i32 0, i32 11
  %90 = load i64, ptr %89, align 8
  %91 = load ptr, ptr %8, align 8
  %92 = load i64, ptr %91, align 8
  %93 = add i64 %90, %92
  %94 = call i64 @fmap_which_page(ptr noundef %87, i64 noundef %93)
  store i64 %94, ptr %11, align 8
  %95 = load ptr, ptr %6, align 8
  %96 = load ptr, ptr %6, align 8
  %97 = getelementptr inbounds %struct.cl_fmap, ptr %96, i32 0, i32 11
  %98 = load i64, ptr %97, align 8
  %99 = load ptr, ptr %8, align 8
  %100 = load i64, ptr %99, align 8
  %101 = add i64 %98, %100
  %102 = load i64, ptr %15, align 8
  %103 = add i64 %101, %102
  %104 = sub i64 %103, 1
  %105 = call i64 @fmap_which_page(ptr noundef %95, i64 noundef %104)
  store i64 %105, ptr %12, align 8
  %106 = load i64, ptr %11, align 8
  store i64 %106, ptr %10, align 8
  br label %107

107:                                              ; preds = %186, %85
  %108 = load i64, ptr %10, align 8
  %109 = load i64, ptr %12, align 8
  %110 = icmp ule i64 %108, %109
  br i1 %110, label %111, label %189

111:                                              ; preds = %107
  %112 = load ptr, ptr %6, align 8
  %113 = getelementptr inbounds %struct.cl_fmap, ptr %112, i32 0, i32 2
  %114 = load ptr, ptr %113, align 8
  %115 = load i64, ptr %10, align 8
  %116 = load ptr, ptr %6, align 8
  %117 = getelementptr inbounds %struct.cl_fmap, ptr %116, i32 0, i32 5
  %118 = load i64, ptr %117, align 8
  %119 = mul i64 %115, %118
  %120 = getelementptr inbounds i8, ptr %114, i64 %119
  store ptr %120, ptr %17, align 8
  %121 = load ptr, ptr %6, align 8
  %122 = load i64, ptr %10, align 8
  %123 = call i32 @fmap_readpage(ptr noundef %121, i64 noundef %122, i64 noundef 1, i64 noundef 0)
  %124 = icmp ne i32 %123, 0
  br i1 %124, label %125, label %126

125:                                              ; preds = %111
  store ptr null, ptr %5, align 8
  br label %228

126:                                              ; preds = %111
  %127 = load i64, ptr %10, align 8
  %128 = load i64, ptr %11, align 8
  %129 = icmp eq i64 %127, %128
  br i1 %129, label %130, label %158

130:                                              ; preds = %126
  %131 = load ptr, ptr %6, align 8
  %132 = getelementptr inbounds %struct.cl_fmap, ptr %131, i32 0, i32 11
  %133 = load i64, ptr %132, align 8
  %134 = load ptr, ptr %8, align 8
  %135 = load i64, ptr %134, align 8
  %136 = add i64 %133, %135
  %137 = load ptr, ptr %6, align 8
  %138 = getelementptr inbounds %struct.cl_fmap, ptr %137, i32 0, i32 5
  %139 = load i64, ptr %138, align 8
  %140 = urem i64 %136, %139
  store i64 %140, ptr %18, align 8
  %141 = load i64, ptr %15, align 8
  %142 = load ptr, ptr %6, align 8
  %143 = getelementptr inbounds %struct.cl_fmap, ptr %142, i32 0, i32 5
  %144 = load i64, ptr %143, align 8
  %145 = load i64, ptr %18, align 8
  %146 = sub i64 %144, %145
  %147 = icmp ult i64 %141, %146
  br i1 %147, label %148, label %150

148:                                              ; preds = %130
  %149 = load i64, ptr %15, align 8
  br label %156

150:                                              ; preds = %130
  %151 = load ptr, ptr %6, align 8
  %152 = getelementptr inbounds %struct.cl_fmap, ptr %151, i32 0, i32 5
  %153 = load i64, ptr %152, align 8
  %154 = load i64, ptr %18, align 8
  %155 = sub i64 %153, %154
  br label %156

156:                                              ; preds = %150, %148
  %157 = phi i64 [ %149, %148 ], [ %155, %150 ]
  store i64 %157, ptr %19, align 8
  br label %172

158:                                              ; preds = %126
  store i64 0, ptr %18, align 8
  %159 = load i64, ptr %15, align 8
  %160 = load ptr, ptr %6, align 8
  %161 = getelementptr inbounds %struct.cl_fmap, ptr %160, i32 0, i32 5
  %162 = load i64, ptr %161, align 8
  %163 = icmp ult i64 %159, %162
  br i1 %163, label %164, label %166

164:                                              ; preds = %158
  %165 = load i64, ptr %15, align 8
  br label %170

166:                                              ; preds = %158
  %167 = load ptr, ptr %6, align 8
  %168 = getelementptr inbounds %struct.cl_fmap, ptr %167, i32 0, i32 5
  %169 = load i64, ptr %168, align 8
  br label %170

170:                                              ; preds = %166, %164
  %171 = phi i64 [ %165, %164 ], [ %169, %166 ]
  store i64 %171, ptr %19, align 8
  br label %172

172:                                              ; preds = %170, %156
  %173 = load i64, ptr %19, align 8
  %174 = load i64, ptr %15, align 8
  %175 = sub i64 %174, %173
  store i64 %175, ptr %15, align 8
  %176 = load ptr, ptr %17, align 8
  %177 = load i64, ptr %18, align 8
  %178 = getelementptr inbounds i8, ptr %176, i64 %177
  %179 = load i64, ptr %19, align 8
  %180 = call ptr @memchr(ptr noundef %178, i32 noundef 10, i64 noundef %179) #11
  store ptr %180, ptr %14, align 8
  %181 = icmp ne ptr %180, null
  br i1 %181, label %182, label %185

182:                                              ; preds = %172
  %183 = load ptr, ptr %14, align 8
  %184 = getelementptr inbounds i8, ptr %183, i32 1
  store ptr %184, ptr %14, align 8
  br label %189

185:                                              ; preds = %172
  br label %186

186:                                              ; preds = %185
  %187 = load i64, ptr %10, align 8
  %188 = add i64 %187, 1
  store i64 %188, ptr %10, align 8
  br label %107

189:                                              ; preds = %182, %107
  %190 = load ptr, ptr %14, align 8
  %191 = icmp ne ptr %190, null
  br i1 %191, label %192, label %215

192:                                              ; preds = %189
  %193 = load ptr, ptr %7, align 8
  %194 = load ptr, ptr %13, align 8
  %195 = load ptr, ptr %14, align 8
  %196 = load ptr, ptr %13, align 8
  %197 = ptrtoint ptr %195 to i64
  %198 = ptrtoint ptr %196 to i64
  %199 = sub i64 %197, %198
  call void @llvm.memcpy.p0.p0.i64(ptr align 1 %193, ptr align 1 %194, i64 %199, i1 false)
  %200 = load ptr, ptr %7, align 8
  %201 = load ptr, ptr %14, align 8
  %202 = load ptr, ptr %13, align 8
  %203 = ptrtoint ptr %201 to i64
  %204 = ptrtoint ptr %202 to i64
  %205 = sub i64 %203, %204
  %206 = getelementptr inbounds i8, ptr %200, i64 %205
  store i8 0, ptr %206, align 1
  %207 = load ptr, ptr %14, align 8
  %208 = load ptr, ptr %13, align 8
  %209 = ptrtoint ptr %207 to i64
  %210 = ptrtoint ptr %208 to i64
  %211 = sub i64 %209, %210
  %212 = load ptr, ptr %8, align 8
  %213 = load i64, ptr %212, align 8
  %214 = add i64 %213, %211
  store i64 %214, ptr %212, align 8
  br label %226

215:                                              ; preds = %189
  %216 = load ptr, ptr %7, align 8
  %217 = load ptr, ptr %13, align 8
  %218 = load i64, ptr %16, align 8
  call void @llvm.memcpy.p0.p0.i64(ptr align 1 %216, ptr align 1 %217, i64 %218, i1 false)
  %219 = load ptr, ptr %7, align 8
  %220 = load i64, ptr %16, align 8
  %221 = getelementptr inbounds i8, ptr %219, i64 %220
  store i8 0, ptr %221, align 1
  %222 = load i64, ptr %16, align 8
  %223 = load ptr, ptr %8, align 8
  %224 = load i64, ptr %223, align 8
  %225 = add i64 %224, %222
  store i64 %225, ptr %223, align 8
  br label %226

226:                                              ; preds = %215, %192
  %227 = load ptr, ptr %7, align 8
  store ptr %227, ptr %5, align 8
  br label %228

228:                                              ; preds = %226, %125, %84
  %229 = load ptr, ptr %5, align 8
  ret ptr %229
}