; Function Attrs: nounwind uwtable
define internal noundef ptr @handle_gets(ptr nocapture noundef %0, ptr noundef writeonly %1, ptr nocapture noundef %2, i64 noundef %3) #0 {
  %5 = getelementptr inbounds i8, ptr %0, i64 16
  %6 = load ptr, ptr %5, align 8
  %7 = getelementptr inbounds i8, ptr %0, i64 72
  %8 = load i64, ptr %7, align 8
  %9 = getelementptr inbounds i8, ptr %6, i64 %8
  %10 = load i64, ptr %2, align 8
  %11 = getelementptr inbounds i8, ptr %9, i64 %10
  %12 = add i64 %3, -1
  %13 = getelementptr inbounds i8, ptr %0, i64 88
  %14 = load i64, ptr %13, align 8
  %15 = sub i64 %14, %10
  %. = tail call i64 @llvm.umin.i64(i64 %12, i64 %15)
  %16 = add i64 %., -1
  %or.cond.not = icmp ult i64 %16, %14
  br i1 %or.cond.not, label %17, label %.loopexit

17:                                               ; preds = %4
  %18 = add i64 %., %10
  %.not93 = icmp ule i64 %18, %14
  %19 = icmp ult i64 %10, %14
  %or.cond98 = and i1 %19, %.not93
  br i1 %or.cond98, label %20, label %.loopexit

20:                                               ; preds = %17
  tail call fastcc void @fmap_aging(ptr noundef nonnull %0)
  %21 = load i64, ptr %7, align 8
  %22 = load i64, ptr %2, align 8
  %23 = add i64 %22, %21
  %24 = getelementptr i8, ptr %0, i64 40
  %.val = load i64, ptr %24, align 8
  %25 = udiv i64 %23, %.val
  %26 = add i64 %16, %23
  %27 = udiv i64 %26, %.val
  %.not94103 = icmp ugt i64 %25, %27
  br i1 %.not94103, label %._crit_edge, label %.lr.ph

.lr.ph:                                           ; preds = %20, %48
  %28 = phi i64 [ %45, %48 ], [ %.val, %20 ]
  %.080105 = phi i64 [ %50, %48 ], [ %25, %20 ]
  %.081104 = phi i64 [ %49, %48 ], [ %., %20 ]
  %29 = load ptr, ptr %5, align 8
  %30 = mul i64 %28, %.080105
  %31 = getelementptr inbounds i8, ptr %29, i64 %30
  %32 = tail call fastcc i32 @fmap_readpage(ptr noundef nonnull %0, i64 noundef %.080105, i64 noundef 1, i64 noundef 0), !range !4
  %.not95 = icmp eq i32 %32, 0
  br i1 %.not95, label %33, label %.loopexit

33:                                               ; preds = %.lr.ph
  %34 = icmp eq i64 %.080105, %25
  br i1 %34, label %35, label %42

35:                                               ; preds = %33
  %36 = load i64, ptr %7, align 8
  %37 = load i64, ptr %2, align 8
  %38 = add i64 %37, %36
  %39 = load i64, ptr %24, align 8
  %40 = urem i64 %38, %39
  %41 = sub i64 %39, %40
  br label %44

42:                                               ; preds = %33
  %43 = load i64, ptr %24, align 8
  br label %44

44:                                               ; preds = %42, %35
  %.sink = phi i64 [ %43, %42 ], [ %41, %35 ]
  %45 = phi i64 [ %43, %42 ], [ %39, %35 ]
  %.078 = phi i64 [ 0, %42 ], [ %40, %35 ]
  %.081.99 = tail call i64 @llvm.umin.i64(i64 %.081104, i64 %.sink)
  %46 = getelementptr inbounds i8, ptr %31, i64 %.078
  %47 = tail call ptr @memchr(ptr noundef %46, i32 noundef 10, i64 noundef %.081.99) #21
  %.not96 = icmp eq ptr %47, null
  br i1 %.not96, label %48, label %51

48:                                               ; preds = %44
  %49 = sub i64 %.081104, %.081.99
  %50 = add i64 %.080105, 1
  %.not94 = icmp ugt i64 %50, %27
  br i1 %.not94, label %._crit_edge, label %.lr.ph

51:                                               ; preds = %44
  %52 = getelementptr inbounds i8, ptr %47, i64 1
  %53 = ptrtoint ptr %52 to i64
  %54 = ptrtoint ptr %11 to i64
  %55 = sub i64 %53, %54
  br label %._crit_edge

._crit_edge:                                      ; preds = %48, %20, %51
  %..sink111 = phi i64 [ %55, %51 ], [ %., %20 ], [ %., %48 ]
  tail call void @llvm.memcpy.p0.p0.i64(ptr align 1 %1, ptr align 1 %11, i64 %..sink111, i1 false)
  %56 = getelementptr inbounds i8, ptr %1, i64 %..sink111
  store i8 0, ptr %56, align 1
  %57 = load i64, ptr %2, align 8
  %58 = add i64 %57, %..sink111
  store i64 %58, ptr %2, align 8
  br label %.loopexit

.loopexit:                                        ; preds = %.lr.ph, %4, %17, %._crit_edge
  %.079 = phi ptr [ %1, %._crit_edge ], [ null, %17 ], [ null, %4 ], [ null, %.lr.ph ]
  ret ptr %.079
}